; Function Attrs: mustprogress nounwind uwtable
define hidden noundef zeroext i1 @_ZN24ShenandoahEvacOOMCounter13try_incrementEv(ptr noundef nonnull align 4 dereferenceable(64) %0) local_unnamed_addr #1 align 2 {
  %2 = load volatile i32, ptr %0, align 4
  tail call void asm sideeffect "", "~{memory},~{dirflag},~{fpsr},~{flags}"() #8, !srcloc !8
  br label %3

3:                                                ; preds = %4, %1
  %.07 = phi i32 [ %2, %1 ], [ %6, %4 ]
  %.not = icmp sgt i32 %.07, -1
  br i1 %.not, label %4, label %8

4:                                                ; preds = %3
  %5 = add nuw nsw i32 %.07, 1
  %6 = tail call noundef i32 asm sideeffect "lock cmpxchgl $1,($3)", "={ax},r,{ax},r,~{cc},~{memory},~{dirflag},~{fpsr},~{flags}"(i32 %5, i32 %.07, ptr nonnull %0) #8, !srcloc !9
  %7 = icmp eq i32 %6, %.07
  br i1 %7, label %8, label %3, !llvm.loop !12

8:                                                ; preds = %4, %3
  ret i1 %.not
}